; Function Attrs: mustprogress nounwind uwtable
define hidden void @_ZN18JfrAdaptiveSampler13rotate_windowEl(ptr noundef nonnull align 8 dereferenceable(76) %0, i64 noundef %1) local_unnamed_addr #2 align 2 {
  %3 = getelementptr inbounds i8, ptr %0, i64 32
  %4 = load volatile ptr, ptr %3, align 8
  tail call void asm sideeffect "", "~{memory},~{dirflag},~{fpsr},~{flags}"() #16, !srcloc !6
  %5 = getelementptr inbounds i8, ptr %4, i64 32
  %6 = load volatile i64, ptr %5, align 8
  %7 = icmp eq i64 %1, 0
  br i1 %7, label %8, label %_ZNK16JfrSamplerWindow10is_expiredEl.exit

8:                                                ; preds = %2
  %9 = tail call noundef i64 @_ZN33FastUnorderedElapsedCounterSource3nowEv() #16
  %.not3 = icmp slt i64 %9, %6
  br i1 %.not3, label %11, label %10

_ZNK16JfrSamplerWindow10is_expiredEl.exit:        ; preds = %2
  %.not = icmp sgt i64 %6, %1
  br i1 %.not, label %11, label %10

10:                                               ; preds = %8, %_ZNK16JfrSamplerWindow10is_expiredEl.exit
  tail call void @_ZN18JfrAdaptiveSampler6rotateEPK16JfrSamplerWindow(ptr noundef nonnull align 8 dereferenceable(76) %0, ptr noundef nonnull %4)
  br label %11

11:                                               ; preds = %8, %_ZNK16JfrSamplerWindow10is_expiredEl.exit, %10
  ret void
}